target datalayout = "e-m:e-p270:32:32-p271:32:32-p272:64:64-i64:64-i128:128-f80:128-n8:16:32:64-S128"
target triple = "x86_64-pc-linux-gnu"

%struct.VariableStatData = type { ptr, ptr, ptr, ptr, i32, i32, i32, i8, i8 }
%struct.ForEachState = type { ptr, i32 }
%struct.PlannerInfo = type { i32, ptr, ptr, i32, ptr, ptr, ptr, ptr, i32, ptr, ptr, ptr, ptr, ptr, ptr, ptr, ptr, i32, ptr, ptr, ptr, ptr, ptr, i8, ptr, ptr, ptr, ptr, ptr, i32, ptr, ptr, ptr, ptr, ptr, ptr, ptr, i32, ptr, ptr, ptr, i32, ptr, ptr, ptr, ptr, ptr, ptr, [8 x ptr], [8 x ptr], ptr, ptr, ptr, ptr, ptr, ptr, ptr, double, double, double, i32, i8, i8, i8, i8, i8, i8, i8, i32, ptr, ptr, i32, i8, i8, i32, ptr, ptr, ptr, ptr, ptr, ptr, i8, ptr }
%struct.List = type { i32, i32, i32, ptr, [0 x %union.ListCell] }
%union.ListCell = type { ptr }
%struct.GroupVarInfo = type { ptr, ptr, double, i8 }

; Function Attrs: nounwind uwtable
define internal ptr @add_unique_group_var(ptr noundef %0, ptr noundef %1, ptr noundef %2, ptr noundef %3) #0 {
  %5 = alloca ptr, align 8
  %6 = alloca ptr, align 8
  %7 = alloca ptr, align 8
  %8 = alloca ptr, align 8
  %9 = alloca ptr, align 8
  %10 = alloca ptr, align 8
  %11 = alloca double, align 8
  %12 = alloca i8, align 1
  %13 = alloca ptr, align 8
  %14 = alloca %struct.ForEachState, align 8
  %15 = alloca i32, align 4
  store ptr %0, ptr %6, align 8
  store ptr %1, ptr %7, align 8
  store ptr %2, ptr %8, align 8
  store ptr %3, ptr %9, align 8
  call void @llvm.lifetime.start.p0(i64 8, ptr %10) #10
  call void @llvm.lifetime.start.p0(i64 8, ptr %11) #10
  call void @llvm.lifetime.start.p0(i64 1, ptr %12) #10
  call void @llvm.lifetime.start.p0(i64 8, ptr %13) #10
  %16 = load ptr, ptr %9, align 8
  %17 = call double @get_variable_numdistinct(ptr noundef %16, ptr noundef %12)
  store double %17, ptr %11, align 8
  %18 = load ptr, ptr %8, align 8
  %19 = load ptr, ptr %6, align 8
  %20 = getelementptr inbounds nuw %struct.PlannerInfo, ptr %19, i32 0, i32 12
  %21 = load ptr, ptr %20, align 8
  %22 = call ptr @remove_nulling_relids(ptr noundef %18, ptr noundef %21, ptr noundef null)
  store ptr %22, ptr %8, align 8
  call void @llvm.lifetime.start.p0(i64 16, ptr %14) #10
  %23 = getelementptr inbounds nuw %struct.ForEachState, ptr %14, i32 0, i32 0
  %24 = load ptr, ptr %7, align 8
  store ptr %24, ptr %23, align 8
  %25 = getelementptr inbounds nuw %struct.ForEachState, ptr %14, i32 0, i32 1
  store i32 0, ptr %25, align 8
  %26 = getelementptr i8, ptr %14, i64 12
  call void @llvm.memset.p0.i64(ptr align 4 %26, i8 0, i64 4, i1 false)
  br label %27

27:                                               ; preds = %95, %4
  %28 = getelementptr inbounds nuw %struct.ForEachState, ptr %14, i32 0, i32 0
  %29 = load ptr, ptr %28, align 8
  %30 = icmp ne ptr %29, null
  br i1 %30, label %31, label %48

31:                                               ; preds = %27
  %32 = getelementptr inbounds nuw %struct.ForEachState, ptr %14, i32 0, i32 1
  %33 = load i32, ptr %32, align 8
  %34 = getelementptr inbounds nuw %struct.ForEachState, ptr %14, i32 0, i32 0
  %35 = load ptr, ptr %34, align 8
  %36 = getelementptr inbounds nuw %struct.List, ptr %35, i32 0, i32 1
  %37 = load i32, ptr %36, align 4
  %38 = icmp slt i32 %33, %37
  br i1 %38, label %39, label %48

39:                                               ; preds = %31
  %40 = getelementptr inbounds nuw %struct.ForEachState, ptr %14, i32 0, i32 0
  %41 = load ptr, ptr %40, align 8
  %42 = getelementptr inbounds nuw %struct.List, ptr %41, i32 0, i32 3
  %43 = load ptr, ptr %42, align 8
  %44 = getelementptr inbounds nuw %struct.ForEachState, ptr %14, i32 0, i32 1
  %45 = load i32, ptr %44, align 8
  %46 = sext i32 %45 to i64
  %47 = getelementptr inbounds %union.ListCell, ptr %43, i64 %46
  store ptr %47, ptr %13, align 8
  br label %49

48:                                               ; preds = %31, %27
  store ptr null, ptr %13, align 8
  br label %49

49:                                               ; preds = %48, %39
  %50 = phi i32 [ 1, %39 ], [ 0, %48 ]
  %51 = icmp ne i32 %50, 0
  br i1 %51, label %53, label %52

52:                                               ; preds = %49
  store i32 2, ptr %15, align 4
  br label %99

53:                                               ; preds = %49
  %54 = load ptr, ptr %13, align 8
  %55 = load ptr, ptr %54, align 8
  store ptr %55, ptr %10, align 8
  %56 = load ptr, ptr %8, align 8
  %57 = load ptr, ptr %10, align 8
  %58 = getelementptr inbounds nuw %struct.GroupVarInfo, ptr %57, i32 0, i32 0
  %59 = load ptr, ptr %58, align 8
  %60 = call zeroext i1 @equal(ptr noundef %56, ptr noundef %59)
  br i1 %60, label %61, label %63

61:                                               ; preds = %53
  %62 = load ptr, ptr %7, align 8
  store ptr %62, ptr %5, align 8
  store i32 1, ptr %15, align 4
  br label %99

63:                                               ; preds = %53
  %64 = load ptr, ptr %9, align 8
  %65 = getelementptr inbounds nuw %struct.VariableStatData, ptr %64, i32 0, i32 1
  %66 = load ptr, ptr %65, align 8
  %67 = load ptr, ptr %10, align 8
  %68 = getelementptr inbounds nuw %struct.GroupVarInfo, ptr %67, i32 0, i32 1
  %69 = load ptr, ptr %68, align 8
  %70 = icmp ne ptr %66, %69
  br i1 %70, label %71, label %94

71:                                               ; preds = %63
  %72 = load ptr, ptr %6, align 8
  %73 = load ptr, ptr %8, align 8
  %74 = load ptr, ptr %10, align 8
  %75 = getelementptr inbounds nuw %struct.GroupVarInfo, ptr %74, i32 0, i32 0
  %76 = load ptr, ptr %75, align 8
  %77 = call zeroext i1 @exprs_known_equal(ptr noundef %72, ptr noundef %73, ptr noundef %76, i32 noundef 0)
  br i1 %77, label %78, label %94

78:                                               ; preds = %71
  %79 = load ptr, ptr %10, align 8
  %80 = getelementptr inbounds nuw %struct.GroupVarInfo, ptr %79, i32 0, i32 2
  %81 = load double, ptr %80, align 8
  %82 = load double, ptr %11, align 8
  %83 = fcmp ole double %81, %82
  br i1 %83, label %84, label %86

84:                                               ; preds = %78
  %85 = load ptr, ptr %7, align 8
  store ptr %85, ptr %5, align 8
  store i32 1, ptr %15, align 4
  br label %99

86:                                               ; preds = %78
  %87 = load ptr, ptr %7, align 8
  %88 = getelementptr inbounds nuw %struct.ForEachState, ptr %14, i32 0, i32 1
  %89 = load i32, ptr %88, align 8
  %90 = add i32 %89, -1
  store i32 %90, ptr %88, align 8
  %91 = call ptr @list_delete_nth_cell(ptr noundef %87, i32 noundef %89)
  %92 = getelementptr inbounds nuw %struct.ForEachState, ptr %14, i32 0, i32 0
  store ptr %91, ptr %92, align 8
  store ptr %91, ptr %7, align 8
  br label %93

93:                                               ; preds = %86
  br label %94

94:                                               ; preds = %93, %71, %63
  br label %95

95:                                               ; preds = %94
  %96 = getelementptr inbounds nuw %struct.ForEachState, ptr %14, i32 0, i32 1
  %97 = load i32, ptr %96, align 8
  %98 = add i32 %97, 1
  store i32 %98, ptr %96, align 8
  br label %27, !llvm.loop !38

99:                                               ; preds = %84, %61, %52
  call void @llvm.lifetime.end.p0(i64 16, ptr %14) #10
  %100 = load i32, ptr %15, align 4
  switch i32 %100, label %123 [
    i32 2, label %101
  ]

101:                                              ; preds = %99
  %102 = call ptr @palloc(i64 noundef 32)
  store ptr %102, ptr %10, align 8
  %103 = load ptr, ptr %8, align 8
  %104 = load ptr, ptr %10, align 8
  %105 = getelementptr inbounds nuw %struct.GroupVarInfo, ptr %104, i32 0, i32 0
  store ptr %103, ptr %105, align 8
  %106 = load ptr, ptr %9, align 8
  %107 = getelementptr inbounds nuw %struct.VariableStatData, ptr %106, i32 0, i32 1
  %108 = load ptr, ptr %107, align 8
  %109 = load ptr, ptr %10, align 8
  %110 = getelementptr inbounds nuw %struct.GroupVarInfo, ptr %109, i32 0, i32 1
  store ptr %108, ptr %110, align 8
  %111 = load double, ptr %11, align 8
  %112 = load ptr, ptr %10, align 8
  %113 = getelementptr inbounds nuw %struct.GroupVarInfo, ptr %112, i32 0, i32 2
  store double %111, ptr %113, align 8
  %114 = load i8, ptr %12, align 1, !range !4, !noundef !5
  %115 = trunc i8 %114 to i1
  %116 = load ptr, ptr %10, align 8
  %117 = getelementptr inbounds nuw %struct.GroupVarInfo, ptr %116, i32 0, i32 3
  %118 = zext i1 %115 to i8
  store i8 %118, ptr %117, align 8
  %119 = load ptr, ptr %7, align 8
  %120 = load ptr, ptr %10, align 8
  %121 = call ptr @lappend(ptr noundef %119, ptr noundef %120)
  store ptr %121, ptr %7, align 8
  %122 = load ptr, ptr %7, align 8
  store ptr %122, ptr %5, align 8
  store i32 1, ptr %15, align 4
  br label %123

123:                                              ; preds = %101, %99
  call void @llvm.lifetime.end.p0(i64 8, ptr %13) #10
  call void @llvm.lifetime.end.p0(i64 1, ptr %12) #10
  call void @llvm.lifetime.end.p0(i64 8, ptr %11) #10
  call void @llvm.lifetime.end.p0(i64 8, ptr %10) #10
  %124 = load ptr, ptr %5, align 8
  ret ptr %124
}