; Function Attrs: nounwind uwtable
define internal fastcc ptr @add_unique_group_var(ptr noundef %0, ptr noundef %1, ptr noundef %2, ptr noundef nonnull readonly captures(none) %3) unnamed_addr #0 {
  %5 = alloca i8, align 1
  call void @llvm.lifetime.start.p0(i64 1, ptr nonnull %5) #12
  %6 = call double @get_variable_numdistinct(ptr noundef nonnull %3, ptr noundef nonnull %5)
  %7 = getelementptr inbounds nuw i8, ptr %0, i64 96
  %8 = load ptr, ptr %7, align 8
  %9 = tail call ptr @remove_nulling_relids(ptr noundef %2, ptr noundef %8, ptr noundef null) #12
  %.not47 = icmp eq ptr %1, null
  br i1 %.not47, label %._crit_edge, label %.lr.ph

.lr.ph:                                           ; preds = %4
  %10 = getelementptr inbounds nuw i8, ptr %3, i64 8
  br label %11

11:                                               ; preds = %.lr.ph, %37
  %.sroa.0.050 = phi ptr [ %1, %.lr.ph ], [ %.sroa.0.1, %37 ]
  %.sroa.7.049 = phi i32 [ 0, %.lr.ph ], [ %38, %37 ]
  %.03548 = phi ptr [ %1, %.lr.ph ], [ %.136, %37 ]
  %12 = getelementptr inbounds nuw i8, ptr %.sroa.0.050, i64 4
  %13 = load i32, ptr %12, align 4
  %14 = icmp slt i32 %.sroa.7.049, %13
  br i1 %14, label %15, label %._crit_edge

15:                                               ; preds = %11
  %16 = getelementptr inbounds nuw i8, ptr %.sroa.0.050, i64 16
  %17 = load ptr, ptr %16, align 8
  %18 = sext i32 %.sroa.7.049 to i64
  %19 = getelementptr inbounds %union.ListCell, ptr %17, i64 %18
  %20 = load ptr, ptr %19, align 8
  %21 = load ptr, ptr %20, align 8
  %22 = tail call zeroext i1 @equal(ptr noundef %9, ptr noundef %21) #12
  br i1 %22, label %.thread43, label %23

23:                                               ; preds = %15
  %24 = load ptr, ptr %10, align 8
  %25 = getelementptr inbounds nuw i8, ptr %20, i64 8
  %26 = load ptr, ptr %25, align 8
  %.not38 = icmp eq ptr %24, %26
  br i1 %.not38, label %37, label %27

27:                                               ; preds = %23
  %28 = load ptr, ptr %20, align 8
  %29 = tail call zeroext i1 @exprs_known_equal(ptr noundef %0, ptr noundef %9, ptr noundef %28, i32 noundef 0) #12
  br i1 %29, label %30, label %37

30:                                               ; preds = %27
  %31 = getelementptr inbounds nuw i8, ptr %20, i64 16
  %32 = load double, ptr %31, align 8
  %33 = fcmp ugt double %32, %6
  br i1 %33, label %34, label %.thread43

34:                                               ; preds = %30
  %35 = add i32 %.sroa.7.049, -1
  %36 = tail call ptr @list_delete_nth_cell(ptr noundef %.03548, i32 noundef %.sroa.7.049) #12
  br label %37

37:                                               ; preds = %23, %27, %34
  %.136 = phi ptr [ %36, %34 ], [ %.03548, %27 ], [ %.03548, %23 ]
  %.sroa.7.1 = phi i32 [ %35, %34 ], [ %.sroa.7.049, %27 ], [ %.sroa.7.049, %23 ]
  %.sroa.0.1 = phi ptr [ %36, %34 ], [ %.sroa.0.050, %27 ], [ %.sroa.0.050, %23 ]
  %38 = add i32 %.sroa.7.1, 1
  %.not = icmp eq ptr %.sroa.0.1, null
  br i1 %.not, label %._crit_edge, label %11, !llvm.loop !43

._crit_edge:                                      ; preds = %11, %37, %4
  %.035.lcssa = phi ptr [ null, %4 ], [ %.136, %37 ], [ %.03548, %11 ]
  %39 = tail call ptr @palloc(i64 noundef 32) #12
  store ptr %9, ptr %39, align 8
  %40 = getelementptr inbounds nuw i8, ptr %3, i64 8
  %41 = load ptr, ptr %40, align 8
  %42 = getelementptr inbounds nuw i8, ptr %39, i64 8
  store ptr %41, ptr %42, align 8
  %43 = getelementptr inbounds nuw i8, ptr %39, i64 16
  store double %6, ptr %43, align 8
  %44 = load i8, ptr %5, align 1, !range !4, !noundef !5
  %45 = getelementptr inbounds nuw i8, ptr %39, i64 24
  store i8 %44, ptr %45, align 8
  %46 = tail call ptr @lappend(ptr noundef %.035.lcssa, ptr noundef nonnull %39) #12
  br label %.thread43

.thread43:                                        ; preds = %30, %15, %._crit_edge
  %.1 = phi ptr [ %46, %._crit_edge ], [ %.03548, %15 ], [ %.03548, %30 ]
  call void @llvm.lifetime.end.p0(i64 1, ptr nonnull %5) #12
  ret ptr %.1
}